target datalayout = "e-m:e-p270:32:32-p271:32:32-p272:64:64-i64:64-i128:128-f80:128-n8:16:32:64-S128"
target triple = "x86_64-pc-linux-gnu"

%struct._lv_vector_draw_dsc_t = type { %struct._lv_vector_fill_dsc_t, %struct._lv_vector_stroke_dsc_t, %struct._lv_matrix_t, i32, %struct.lv_area_t }
%struct._lv_vector_fill_dsc_t = type { i32, %struct.lv_color32_t, i8, i32, %struct._lv_draw_image_dsc_t, %struct._lv_vector_gradient_t, %struct._lv_matrix_t }
%struct.lv_color32_t = type { i8, i8, i8, i8 }
%struct._lv_draw_image_dsc_t = type { %struct.lv_draw_dsc_base_t, ptr, %struct.lv_image_header_t, i32, i32, i32, i32, i32, %struct.lv_point_t, %struct.lv_color_t, i8, i8, i8, ptr, %struct.lv_area_t, i32, ptr }
%struct.lv_draw_dsc_base_t = type { ptr, i32, i32, i32, ptr, i64, ptr }
%struct.lv_image_header_t = type <{ i64, i32 }>
%struct.lv_point_t = type { i32, i32 }
%struct.lv_color_t = type { i8, i8, i8 }
%struct._lv_vector_gradient_t = type { i32, [2 x %struct.lv_gradient_stop_t], i16, float, float, float, float, float, float, float, i32 }
%struct.lv_gradient_stop_t = type { %struct.lv_color_t, i8, i8 }
%struct._lv_vector_stroke_dsc_t = type { i32, %struct.lv_color32_t, i8, float, %struct._lv_array_t, i32, i32, i16, %struct._lv_vector_gradient_t, %struct._lv_matrix_t }
%struct._lv_array_t = type { ptr, i32, i32, i32, i8 }
%struct._lv_matrix_t = type { [3 x [3 x float]] }
%struct.lv_area_t = type { i32, i32, i32, i32 }
%struct._lv_svg_render_obj = type { ptr, i32, ptr, %struct._lv_vector_draw_dsc_t, %struct._lv_matrix_t, ptr, ptr, ptr, ptr, ptr, ptr, ptr, ptr, ptr }

; Function Attrs: nounwind uwtable
define internal void @_deinit_draw_dsc(ptr noundef %0) #0 {
  %2 = alloca ptr, align 8
  store ptr %0, ptr %2, align 8, !tbaa !3
  %3 = load ptr, ptr %2, align 8, !tbaa !3
  %4 = getelementptr inbounds nuw %struct._lv_vector_draw_dsc_t, ptr %3, i32 0, i32 1
  %5 = getelementptr inbounds nuw %struct._lv_vector_stroke_dsc_t, ptr %4, i32 0, i32 4
  call void @lv_array_deinit(ptr noundef %5)
  ret void
}

; Function Attrs: nounwind uwtable
define void @lv_svg_render_delete(ptr noundef %0) #0 {
  %2 = alloca ptr, align 8
  %3 = alloca ptr, align 8
  store ptr %0, ptr %2, align 8, !tbaa !3
  br label %4

4:                                                ; preds = %50, %1
  %5 = load ptr, ptr %2, align 8, !tbaa !3
  %6 = icmp ne ptr %5, null
  br i1 %6, label %7, label %52

7:                                                ; preds = %4
  call void @llvm.lifetime.start.p0(i64 8, ptr %3) #8
  %8 = load ptr, ptr %2, align 8, !tbaa !3
  store ptr %8, ptr %3, align 8, !tbaa !3
  %9 = load ptr, ptr %2, align 8, !tbaa !3
  %10 = getelementptr inbounds nuw %struct._lv_svg_render_obj, ptr %9, i32 0, i32 0
  %11 = load ptr, ptr %10, align 8, !tbaa !53
  store ptr %11, ptr %2, align 8, !tbaa !3
  %12 = load ptr, ptr %3, align 8, !tbaa !3
  %13 = getelementptr inbounds nuw %struct._lv_svg_render_obj, ptr %12, i32 0, i32 3
  call void @_deinit_draw_dsc(ptr noundef %13)
  %14 = load ptr, ptr %3, align 8, !tbaa !3
  %15 = getelementptr inbounds nuw %struct._lv_svg_render_obj, ptr %14, i32 0, i32 13
  %16 = load ptr, ptr %15, align 8, !tbaa !70
  %17 = icmp ne ptr %16, null
  br i1 %17, label %18, label %23

18:                                               ; preds = %7
  %19 = load ptr, ptr %3, align 8, !tbaa !3
  %20 = getelementptr inbounds nuw %struct._lv_svg_render_obj, ptr %19, i32 0, i32 13
  %21 = load ptr, ptr %20, align 8, !tbaa !70
  %22 = load ptr, ptr %3, align 8, !tbaa !3
  call void %21(ptr noundef %22)
  br label %23

23:                                               ; preds = %18, %7
  %24 = load ptr, ptr %3, align 8, !tbaa !3
  %25 = getelementptr inbounds nuw %struct._lv_svg_render_obj, ptr %24, i32 0, i32 2
  %26 = load ptr, ptr %25, align 8, !tbaa !71
  %27 = icmp ne ptr %26, null
  br i1 %27, label %28, label %32

28:                                               ; preds = %23
  %29 = load ptr, ptr %3, align 8, !tbaa !3
  %30 = getelementptr inbounds nuw %struct._lv_svg_render_obj, ptr %29, i32 0, i32 2
  %31 = load ptr, ptr %30, align 8, !tbaa !71
  call void @lv_free(ptr noundef %31)
  br label %32

32:                                               ; preds = %28, %23
  %33 = load ptr, ptr %3, align 8, !tbaa !3
  %34 = getelementptr inbounds nuw %struct._lv_svg_render_obj, ptr %33, i32 0, i32 6
  %35 = load ptr, ptr %34, align 8, !tbaa !72
  %36 = icmp ne ptr %35, null
  br i1 %36, label %37, label %41

37:                                               ; preds = %32
  %38 = load ptr, ptr %3, align 8, !tbaa !3
  %39 = getelementptr inbounds nuw %struct._lv_svg_render_obj, ptr %38, i32 0, i32 6
  %40 = load ptr, ptr %39, align 8, !tbaa !72
  call void @lv_free(ptr noundef %40)
  br label %41

41:                                               ; preds = %37, %32
  %42 = load ptr, ptr %3, align 8, !tbaa !3
  %43 = getelementptr inbounds nuw %struct._lv_svg_render_obj, ptr %42, i32 0, i32 7
  %44 = load ptr, ptr %43, align 8, !tbaa !73
  %45 = icmp ne ptr %44, null
  br i1 %45, label %46, label %50

46:                                               ; preds = %41
  %47 = load ptr, ptr %3, align 8, !tbaa !3
  %48 = getelementptr inbounds nuw %struct._lv_svg_render_obj, ptr %47, i32 0, i32 7
  %49 = load ptr, ptr %48, align 8, !tbaa !73
  call void @lv_free(ptr noundef %49)
  br label %50

50:                                               ; preds = %46, %41
  %51 = load ptr, ptr %3, align 8, !tbaa !3
  call void @lv_free(ptr noundef %51)
  call void @llvm.lifetime.end.p0(i64 8, ptr %3) #8
  br label %4, !llvm.loop !74

52:                                               ; preds = %4
  ret void
}

; Function Attrs: nounwind uwtable
define void @lv_draw_svg(ptr noundef %0, ptr noundef %1) #0 {
  %3 = alloca ptr, align 8
  %4 = alloca ptr, align 8
  %5 = alloca ptr, align 8
  %6 = alloca ptr, align 8
  store ptr %0, ptr %3, align 8, !tbaa !3
  store ptr %1, ptr %4, align 8, !tbaa !3
  %7 = load ptr, ptr %4, align 8, !tbaa !3
  %8 = icmp ne ptr %7, null
  br i1 %8, label %10, label %9

9:                                                ; preds = %2
  br label %20

10:                                               ; preds = %2
  call void @llvm.lifetime.start.p0(i64 8, ptr %5) #8
  %11 = load ptr, ptr %3, align 8, !tbaa !3
  %12 = call ptr @lv_vector_dsc_create(ptr noundef %11)
  store ptr %12, ptr %5, align 8, !tbaa !3
  call void @llvm.lifetime.start.p0(i64 8, ptr %6) #8
  %13 = load ptr, ptr %4, align 8, !tbaa !3
  %14 = call ptr @lv_svg_render_create(ptr noundef %13)
  store ptr %14, ptr %6, align 8, !tbaa !3
  %15 = load ptr, ptr %5, align 8, !tbaa !3
  %16 = load ptr, ptr %6, align 8, !tbaa !3
  call void @lv_draw_svg_render(ptr noundef %15, ptr noundef %16)
  %17 = load ptr, ptr %5, align 8, !tbaa !3
  call void @lv_draw_vector(ptr noundef %17)
  %18 = load ptr, ptr %6, align 8, !tbaa !3
  call void @lv_svg_render_delete(ptr noundef %18)
  %19 = load ptr, ptr %5, align 8, !tbaa !3
  call void @lv_vector_dsc_delete(ptr noundef %19)
  call void @llvm.lifetime.end.p0(i64 8, ptr %6) #8
  call void @llvm.lifetime.end.p0(i64 8, ptr %5) #8
  br label %20

20:                                               ; preds = %10, %9
  ret void
}