; Function Attrs: nounwind uwtable
define void @lv_draw_svg(ptr noundef %0, ptr noundef %1) local_unnamed_addr #0 {
  %.not = icmp eq ptr %1, null
  br i1 %.not, label %24, label %3

3:                                                ; preds = %2
  %4 = tail call ptr @lv_vector_dsc_create(ptr noundef %0) #9
  %5 = tail call ptr @lv_svg_render_create(ptr noundef nonnull %1)
  tail call void @lv_draw_svg_render(ptr noundef %4, ptr noundef %5)
  tail call void @lv_draw_vector(ptr noundef %4) #9
  %.not22.i = icmp eq ptr %5, null
  br i1 %.not22.i, label %lv_svg_render_delete.exit, label %.lr.ph.i

.lr.ph.i:                                         ; preds = %3, %23
  %.023.i = phi ptr [ %6, %23 ], [ %5, %3 ]
  %6 = load ptr, ptr %.023.i, align 8, !tbaa !136
  %7 = getelementptr inbounds nuw i8, ptr %.023.i, i64 288
  tail call void @lv_array_deinit(ptr noundef nonnull %7) #9
  %8 = getelementptr inbounds nuw i8, ptr %.023.i, i64 568
  %9 = load ptr, ptr %8, align 8, !tbaa !152
  %.not18.i = icmp eq ptr %9, null
  br i1 %.not18.i, label %11, label %10

10:                                               ; preds = %.lr.ph.i
  tail call void %9(ptr noundef nonnull %.023.i) #9
  br label %11

11:                                               ; preds = %10, %.lr.ph.i
  %12 = getelementptr inbounds nuw i8, ptr %.023.i, i64 16
  %13 = load ptr, ptr %12, align 8, !tbaa !121
  %.not19.i = icmp eq ptr %13, null
  br i1 %.not19.i, label %15, label %14

14:                                               ; preds = %11
  tail call void @lv_free(ptr noundef nonnull %13) #9
  br label %15

15:                                               ; preds = %14, %11
  %16 = getelementptr inbounds nuw i8, ptr %.023.i, i64 512
  %17 = load ptr, ptr %16, align 8, !tbaa !124
  %.not20.i = icmp eq ptr %17, null
  br i1 %.not20.i, label %19, label %18

18:                                               ; preds = %15
  tail call void @lv_free(ptr noundef nonnull %17) #9
  br label %19

19:                                               ; preds = %18, %15
  %20 = getelementptr inbounds nuw i8, ptr %.023.i, i64 520
  %21 = load ptr, ptr %20, align 8, !tbaa !126
  %.not21.i = icmp eq ptr %21, null
  br i1 %.not21.i, label %23, label %22

22:                                               ; preds = %19
  tail call void @lv_free(ptr noundef nonnull %21) #9
  br label %23

23:                                               ; preds = %22, %19
  tail call void @lv_free(ptr noundef nonnull %.023.i) #9
  %.not.i = icmp eq ptr %6, null
  br i1 %.not.i, label %lv_svg_render_delete.exit, label %.lr.ph.i, !llvm.loop !153

lv_svg_render_delete.exit:                        ; preds = %23, %3
  tail call void @lv_vector_dsc_delete(ptr noundef %4) #9
  br label %24

24:                                               ; preds = %2, %lv_svg_render_delete.exit
  ret void
}